target datalayout = "e-m:e-p270:32:32-p271:32:32-p272:64:64-i64:64-i128:128-f80:128-n8:16:32:64-S128"
target triple = "x86_64-pc-linux-gnu"

%struct._object = type { %union.anon, ptr }
%union.anon = type { i64 }
%struct.superobject = type { %struct._object, ptr, ptr, ptr }

; Function Attrs: nounwind uwtable
define internal i32 @super_traverse(ptr noundef %0, ptr noundef %1, ptr noundef %2) #0 {
  %4 = alloca i32, align 4
  %5 = alloca ptr, align 8
  %6 = alloca ptr, align 8
  %7 = alloca ptr, align 8
  %8 = alloca ptr, align 8
  %9 = alloca i32, align 4
  %10 = alloca i32, align 4
  %11 = alloca i32, align 4
  %12 = alloca i32, align 4
  store ptr %0, ptr %5, align 8, !tbaa !97
  store ptr %1, ptr %6, align 8, !tbaa !13
  store ptr %2, ptr %7, align 8, !tbaa !13
  call void @llvm.lifetime.start.p0(i64 8, ptr %8) #11
  %13 = load ptr, ptr %5, align 8, !tbaa !97
  store ptr %13, ptr %8, align 8, !tbaa !13
  br label %14

14:                                               ; preds = %3
  %15 = load ptr, ptr %8, align 8, !tbaa !13
  %16 = getelementptr inbounds nuw %struct.superobject, ptr %15, i32 0, i32 2
  %17 = load ptr, ptr %16, align 8, !tbaa !367
  %18 = icmp ne ptr %17, null
  br i1 %18, label %19, label %34

19:                                               ; preds = %14
  call void @llvm.lifetime.start.p0(i64 4, ptr %9) #11
  %20 = load ptr, ptr %6, align 8, !tbaa !13
  %21 = load ptr, ptr %8, align 8, !tbaa !13
  %22 = getelementptr inbounds nuw %struct.superobject, ptr %21, i32 0, i32 2
  %23 = load ptr, ptr %22, align 8, !tbaa !367
  %24 = load ptr, ptr %7, align 8, !tbaa !13
  %25 = call i32 %20(ptr noundef %23, ptr noundef %24)
  store i32 %25, ptr %9, align 4, !tbaa !115
  %26 = load i32, ptr %9, align 4, !tbaa !115
  %27 = icmp ne i32 %26, 0
  br i1 %27, label %28, label %30

28:                                               ; preds = %19
  %29 = load i32, ptr %9, align 4, !tbaa !115
  store i32 %29, ptr %4, align 4
  store i32 1, ptr %10, align 4
  br label %31

30:                                               ; preds = %19
  store i32 0, ptr %10, align 4
  br label %31

31:                                               ; preds = %30, %28
  call void @llvm.lifetime.end.p0(i64 4, ptr %9) #11
  %32 = load i32, ptr %10, align 4
  switch i32 %32, label %83 [
    i32 0, label %33
  ]

33:                                               ; preds = %31
  br label %34

34:                                               ; preds = %33, %14
  br label %35

35:                                               ; preds = %34
  br label %36

36:                                               ; preds = %35
  br label %37

37:                                               ; preds = %36
  %38 = load ptr, ptr %8, align 8, !tbaa !13
  %39 = getelementptr inbounds nuw %struct.superobject, ptr %38, i32 0, i32 1
  %40 = load ptr, ptr %39, align 8, !tbaa !369
  %41 = icmp ne ptr %40, null
  br i1 %41, label %42, label %57

42:                                               ; preds = %37
  call void @llvm.lifetime.start.p0(i64 4, ptr %11) #11
  %43 = load ptr, ptr %6, align 8, !tbaa !13
  %44 = load ptr, ptr %8, align 8, !tbaa !13
  %45 = getelementptr inbounds nuw %struct.superobject, ptr %44, i32 0, i32 1
  %46 = load ptr, ptr %45, align 8, !tbaa !369
  %47 = load ptr, ptr %7, align 8, !tbaa !13
  %48 = call i32 %43(ptr noundef %46, ptr noundef %47)
  store i32 %48, ptr %11, align 4, !tbaa !115
  %49 = load i32, ptr %11, align 4, !tbaa !115
  %50 = icmp ne i32 %49, 0
  br i1 %50, label %51, label %53

51:                                               ; preds = %42
  %52 = load i32, ptr %11, align 4, !tbaa !115
  store i32 %52, ptr %4, align 4
  store i32 1, ptr %10, align 4
  br label %54

53:                                               ; preds = %42
  store i32 0, ptr %10, align 4
  br label %54

54:                                               ; preds = %53, %51
  call void @llvm.lifetime.end.p0(i64 4, ptr %11) #11
  %55 = load i32, ptr %10, align 4
  switch i32 %55, label %83 [
    i32 0, label %56
  ]

56:                                               ; preds = %54
  br label %57

57:                                               ; preds = %56, %37
  br label %58

58:                                               ; preds = %57
  br label %59

59:                                               ; preds = %58
  br label %60

60:                                               ; preds = %59
  %61 = load ptr, ptr %8, align 8, !tbaa !13
  %62 = getelementptr inbounds nuw %struct.superobject, ptr %61, i32 0, i32 3
  %63 = load ptr, ptr %62, align 8, !tbaa !370
  %64 = icmp ne ptr %63, null
  br i1 %64, label %65, label %80

65:                                               ; preds = %60
  call void @llvm.lifetime.start.p0(i64 4, ptr %12) #11
  %66 = load ptr, ptr %6, align 8, !tbaa !13
  %67 = load ptr, ptr %8, align 8, !tbaa !13
  %68 = getelementptr inbounds nuw %struct.superobject, ptr %67, i32 0, i32 3
  %69 = load ptr, ptr %68, align 8, !tbaa !370
  %70 = load ptr, ptr %7, align 8, !tbaa !13
  %71 = call i32 %66(ptr noundef %69, ptr noundef %70)
  store i32 %71, ptr %12, align 4, !tbaa !115
  %72 = load i32, ptr %12, align 4, !tbaa !115
  %73 = icmp ne i32 %72, 0
  br i1 %73, label %74, label %76

74:                                               ; preds = %65
  %75 = load i32, ptr %12, align 4, !tbaa !115
  store i32 %75, ptr %4, align 4
  store i32 1, ptr %10, align 4
  br label %77

76:                                               ; preds = %65
  store i32 0, ptr %10, align 4
  br label %77

77:                                               ; preds = %76, %74
  call void @llvm.lifetime.end.p0(i64 4, ptr %12) #11
  %78 = load i32, ptr %10, align 4
  switch i32 %78, label %83 [
    i32 0, label %79
  ]

79:                                               ; preds = %77
  br label %80

80:                                               ; preds = %79, %60
  br label %81

81:                                               ; preds = %80
  br label %82

82:                                               ; preds = %81
  store i32 0, ptr %4, align 4
  store i32 1, ptr %10, align 4
  br label %83

83:                                               ; preds = %82, %77, %54, %31
  call void @llvm.lifetime.end.p0(i64 8, ptr %8) #11
  %84 = load i32, ptr %4, align 4
  ret i32 %84
}